target datalayout = "e-m:e-p270:32:32-p271:32:32-p272:64:64-i64:64-i128:128-f80:128-n8:16:32:64-S128"
target triple = "x86_64-pc-linux-gnu"

%"struct.__cxxabiv1::(anonymous namespace)::LibcppCondVar" = type { %union.pthread_cond_t }
%union.pthread_cond_t = type { %struct.__pthread_cond_s }
%struct.__pthread_cond_s = type { %union.__atomic_wide_counter, %union.__atomic_wide_counter, [2 x i32], [2 x i32], i32, i32, [2 x i32] }
%union.__atomic_wide_counter = type { i64 }
%"struct.__cxxabiv1::(anonymous namespace)::LibcppMutex" = type { %union.pthread_mutex_t }
%union.pthread_mutex_t = type { %struct.__pthread_mutex_s }
%struct.__pthread_mutex_s = type { i32, i32, i32, i32, i32, i16, i16, %struct.__pthread_internal_list }
%struct.__pthread_internal_list = type { ptr, ptr }
%"struct.__cxxabiv1::(anonymous namespace)::GuardObject" = type { %"struct.__cxxabiv1::(anonymous namespace)::GuardByte", %"struct.__cxxabiv1::(anonymous namespace)::InitByteGlobalMutex" }
%"struct.__cxxabiv1::(anonymous namespace)::GuardByte" = type { %"class.__cxxabiv1::(anonymous namespace)::AtomicInt" }
%"class.__cxxabiv1::(anonymous namespace)::AtomicInt" = type { ptr }
%"struct.__cxxabiv1::(anonymous namespace)::InitByteGlobalMutex" = type <{ ptr, ptr, i8, [3 x i8], %"struct.__cxxabiv1::(anonymous namespace)::LazyValue", [4 x i8] }>
%"struct.__cxxabiv1::(anonymous namespace)::LazyValue" = type <{ i32, i8, [3 x i8] }>
%"struct.__cxxabiv1::(anonymous namespace)::InitByteGlobalMutex<__cxxabiv1::(anonymous namespace)::LibcppMutex, __cxxabiv1::(anonymous namespace)::LibcppCondVar, __cxxabiv1::(anonymous namespace)::GlobalStatic<__cxxabiv1::(anonymous namespace)::LibcppMutex>::instance, __cxxabiv1::(anonymous namespace)::GlobalStatic<__cxxabiv1::(anonymous namespace)::LibcppCondVar>::instance, &__cxxabiv1::(anonymous namespace)::PlatformThreadID>::LockGuard" = type { ptr }

@_ZN10__cxxabiv112_GLOBAL__N_112GlobalStaticINS0_13LibcppCondVarEE8instanceE = internal global %"struct.__cxxabiv1::(anonymous namespace)::LibcppCondVar" zeroinitializer, align 8
@_ZN10__cxxabiv112_GLOBAL__N_112GlobalStaticINS0_11LibcppMutexEE8instanceE = internal global %"struct.__cxxabiv1::(anonymous namespace)::LibcppMutex" zeroinitializer, align 8
@.str.2 = private unnamed_addr constant [27 x i8] c"%s failed to acquire mutex\00", align 1
@.str.3 = private unnamed_addr constant [27 x i8] c"%s failed to release mutex\00", align 1
@.str.5 = private unnamed_addr constant [23 x i8] c"%s failed to broadcast\00", align 1
@.str.6 = private unnamed_addr constant [18 x i8] c"__cxa_guard_abort\00", align 1

; Function Attrs: inlinehint mustprogress nounwind uwtable
define linkonce_odr hidden noundef i32 @_ZNSt3__121__libcpp_mutex_unlockB8ne210000EP15pthread_mutex_t(ptr noundef %0) #5 comdat {
  %2 = alloca ptr, align 8
  store ptr %0, ptr %2, align 8, !tbaa !49
  %3 = load ptr, ptr %2, align 8, !tbaa !49
  %4 = call i32 @pthread_mutex_unlock(ptr noundef %3) #10
  ret i32 %4
}

; Function Attrs: inlinehint mustprogress nounwind uwtable
define linkonce_odr hidden noundef i32 @_ZNSt3__119__libcpp_mutex_lockB8ne210000EP15pthread_mutex_t(ptr noundef %0) #5 comdat {
  %2 = alloca ptr, align 8
  store ptr %0, ptr %2, align 8, !tbaa !49
  %3 = load ptr, ptr %2, align 8, !tbaa !49
  %4 = call i32 @pthread_mutex_lock(ptr noundef %3) #10
  ret i32 %4
}

; Function Attrs: inlinehint mustprogress nounwind uwtable
define linkonce_odr hidden noundef i32 @_ZNSt3__126__libcpp_condvar_broadcastB8ne210000EP14pthread_cond_t(ptr noundef %0) #5 comdat {
  %2 = alloca ptr, align 8
  store ptr %0, ptr %2, align 8, !tbaa !49
  %3 = load ptr, ptr %2, align 8, !tbaa !49
  %4 = call i32 @pthread_cond_broadcast(ptr noundef %3) #10
  ret i32 %4
}

; Function Attrs: mustprogress uwtable
define internal noundef zeroext i1 @_ZN10__cxxabiv112_GLOBAL__N_111LibcppMutex6unlockEv(ptr noundef nonnull align 8 dereferenceable(40) %0) #2 align 2 {
  %2 = alloca ptr, align 8
  store ptr %0, ptr %2, align 8, !tbaa !47
  %3 = load ptr, ptr %2, align 8
  %4 = getelementptr inbounds nuw %"struct.__cxxabiv1::(anonymous namespace)::LibcppMutex", ptr %3, i32 0, i32 0
  %5 = call noundef i32 @_ZNSt3__121__libcpp_mutex_unlockB8ne210000EP15pthread_mutex_t(ptr noundef %4)
  %6 = icmp ne i32 %5, 0
  ret i1 %6
}

; Function Attrs: mustprogress uwtable
define internal noundef zeroext i1 @_ZN10__cxxabiv112_GLOBAL__N_111LibcppMutex4lockEv(ptr noundef nonnull align 8 dereferenceable(40) %0) #2 align 2 {
  %2 = alloca ptr, align 8
  store ptr %0, ptr %2, align 8, !tbaa !47
  %3 = load ptr, ptr %2, align 8
  %4 = getelementptr inbounds nuw %"struct.__cxxabiv1::(anonymous namespace)::LibcppMutex", ptr %3, i32 0, i32 0
  %5 = call noundef i32 @_ZNSt3__119__libcpp_mutex_lockB8ne210000EP15pthread_mutex_t(ptr noundef %4)
  %6 = icmp ne i32 %5, 0
  ret i1 %6
}

; Function Attrs: mustprogress uwtable
define internal noundef zeroext i1 @_ZN10__cxxabiv112_GLOBAL__N_113LibcppCondVar9broadcastEv(ptr noundef nonnull align 8 dereferenceable(48) %0) #2 align 2 {
  %2 = alloca ptr, align 8
  store ptr %0, ptr %2, align 8, !tbaa !45
  %3 = load ptr, ptr %2, align 8
  %4 = getelementptr inbounds nuw %"struct.__cxxabiv1::(anonymous namespace)::LibcppCondVar", ptr %3, i32 0, i32 0
  %5 = call noundef i32 @_ZNSt3__126__libcpp_condvar_broadcastB8ne210000EP14pthread_cond_t(ptr noundef %4)
  %6 = icmp ne i32 %5, 0
  ret i1 %6
}

; Function Attrs: mustprogress nounwind uwtable
define internal void @_ZN10__cxxabiv112_GLOBAL__N_119InitByteGlobalMutexINS0_11LibcppMutexENS0_13LibcppCondVarEL_ZNS0_12GlobalStaticIS2_E8instanceEEL_ZNS4_IS3_E8instanceEEXadL_ZNS0_16PlatformThreadIDEvEEE9LockGuardD2Ev(ptr noundef nonnull align 8 dereferenceable(8) %0) unnamed_addr #3 align 2 personality ptr @__gxx_personality_v0 {
  %2 = alloca ptr, align 8
  store ptr %0, ptr %2, align 8, !tbaa !40
  %3 = load ptr, ptr %2, align 8
  %4 = invoke noundef zeroext i1 @_ZN10__cxxabiv112_GLOBAL__N_111LibcppMutex6unlockEv(ptr noundef nonnull align 8 dereferenceable(40) @_ZN10__cxxabiv112_GLOBAL__N_112GlobalStaticINS0_11LibcppMutexEE8instanceE)
          to label %5 unwind label %11

5:                                                ; preds = %1
  br i1 %4, label %6, label %10

6:                                                ; preds = %5
  %7 = getelementptr inbounds nuw %"struct.__cxxabiv1::(anonymous namespace)::InitByteGlobalMutex<__cxxabiv1::(anonymous namespace)::LibcppMutex, __cxxabiv1::(anonymous namespace)::LibcppCondVar, __cxxabiv1::(anonymous namespace)::GlobalStatic<__cxxabiv1::(anonymous namespace)::LibcppMutex>::instance, __cxxabiv1::(anonymous namespace)::GlobalStatic<__cxxabiv1::(anonymous namespace)::LibcppCondVar>::instance, &__cxxabiv1::(anonymous namespace)::PlatformThreadID>::LockGuard", ptr %3, i32 0, i32 0
  %8 = load ptr, ptr %7, align 8, !tbaa !42
  invoke void (ptr, ...) @__abort_message(ptr noundef @.str.3, ptr noundef %8) #11
          to label %9 unwind label %11

9:                                                ; preds = %6
  unreachable

10:                                               ; preds = %5
  ret void

11:                                               ; preds = %6, %1
  %12 = landingpad { ptr, i32 }
          catch ptr null
  %13 = extractvalue { ptr, i32 } %12, 0
  call void @__clang_call_terminate(ptr %13) #12
  unreachable
}

; Function Attrs: mustprogress uwtable
define internal void @_ZN10__cxxabiv112_GLOBAL__N_119InitByteGlobalMutexINS0_11LibcppMutexENS0_13LibcppCondVarEL_ZNS0_12GlobalStaticIS2_E8instanceEEL_ZNS4_IS3_E8instanceEEXadL_ZNS0_16PlatformThreadIDEvEEE9LockGuardC2EPKc(ptr noundef nonnull align 8 dereferenceable(8) %0, ptr noundef %1) unnamed_addr #2 align 2 {
  %3 = alloca ptr, align 8
  %4 = alloca ptr, align 8
  store ptr %0, ptr %3, align 8, !tbaa !40
  store ptr %1, ptr %4, align 8, !tbaa !14
  %5 = load ptr, ptr %3, align 8
  %6 = getelementptr inbounds nuw %"struct.__cxxabiv1::(anonymous namespace)::InitByteGlobalMutex<__cxxabiv1::(anonymous namespace)::LibcppMutex, __cxxabiv1::(anonymous namespace)::LibcppCondVar, __cxxabiv1::(anonymous namespace)::GlobalStatic<__cxxabiv1::(anonymous namespace)::LibcppMutex>::instance, __cxxabiv1::(anonymous namespace)::GlobalStatic<__cxxabiv1::(anonymous namespace)::LibcppCondVar>::instance, &__cxxabiv1::(anonymous namespace)::PlatformThreadID>::LockGuard", ptr %5, i32 0, i32 0
  %7 = load ptr, ptr %4, align 8, !tbaa !14
  store ptr %7, ptr %6, align 8, !tbaa !42
  %8 = call noundef zeroext i1 @_ZN10__cxxabiv112_GLOBAL__N_111LibcppMutex4lockEv(ptr noundef nonnull align 8 dereferenceable(40) @_ZN10__cxxabiv112_GLOBAL__N_112GlobalStaticINS0_11LibcppMutexEE8instanceE)
  br i1 %8, label %9, label %12

9:                                                ; preds = %2
  %10 = getelementptr inbounds nuw %"struct.__cxxabiv1::(anonymous namespace)::InitByteGlobalMutex<__cxxabiv1::(anonymous namespace)::LibcppMutex, __cxxabiv1::(anonymous namespace)::LibcppCondVar, __cxxabiv1::(anonymous namespace)::GlobalStatic<__cxxabiv1::(anonymous namespace)::LibcppMutex>::instance, __cxxabiv1::(anonymous namespace)::GlobalStatic<__cxxabiv1::(anonymous namespace)::LibcppCondVar>::instance, &__cxxabiv1::(anonymous namespace)::PlatformThreadID>::LockGuard", ptr %5, i32 0, i32 0
  %11 = load ptr, ptr %10, align 8, !tbaa !42
  call void (ptr, ...) @__abort_message(ptr noundef @.str.2, ptr noundef %11) #11
  unreachable

12:                                               ; preds = %2
  ret void
}

; Function Attrs: mustprogress nounwind uwtable
define internal void @_ZN10__cxxabiv112_GLOBAL__N_19LazyValueIjXadL_ZNS0_16PlatformThreadIDEvEEEC2Ev(ptr noundef nonnull align 4 dereferenceable(5) %0) unnamed_addr #3 align 2 {
  %2 = alloca ptr, align 8
  store ptr %0, ptr %2, align 8, !tbaa !31
  %3 = load ptr, ptr %2, align 8
  %4 = getelementptr inbounds nuw %"struct.__cxxabiv1::(anonymous namespace)::LazyValue", ptr %3, i32 0, i32 1
  store i8 0, ptr %4, align 4, !tbaa !33
  ret void
}

; Function Attrs: mustprogress nounwind uwtable
define internal void @_ZN10__cxxabiv112_GLOBAL__N_19AtomicIntIhEC2EPh(ptr noundef nonnull align 8 dereferenceable(8) %0, ptr noundef %1) unnamed_addr #3 align 2 {
  %3 = alloca ptr, align 8
  %4 = alloca ptr, align 8
  store ptr %0, ptr %3, align 8, !tbaa !27
  store ptr %1, ptr %4, align 8, !tbaa !14
  %5 = load ptr, ptr %3, align 8
  %6 = getelementptr inbounds nuw %"class.__cxxabiv1::(anonymous namespace)::AtomicInt", ptr %5, i32 0, i32 0
  %7 = load ptr, ptr %4, align 8, !tbaa !14
  store ptr %7, ptr %6, align 8, !tbaa !29
  ret void
}

; Function Attrs: mustprogress uwtable
define internal void @_ZN10__cxxabiv112_GLOBAL__N_119InitByteGlobalMutexINS0_11LibcppMutexENS0_13LibcppCondVarEL_ZNS0_12GlobalStaticIS2_E8instanceEEL_ZNS4_IS3_E8instanceEEXadL_ZNS0_16PlatformThreadIDEvEEE5abortEv(ptr noundef nonnull align 8 dereferenceable(28) %0) #2 align 2 {
  %2 = alloca ptr, align 8
  %3 = alloca i8, align 1
  %4 = alloca %"struct.__cxxabiv1::(anonymous namespace)::InitByteGlobalMutex<__cxxabiv1::(anonymous namespace)::LibcppMutex, __cxxabiv1::(anonymous namespace)::LibcppCondVar, __cxxabiv1::(anonymous namespace)::GlobalStatic<__cxxabiv1::(anonymous namespace)::LibcppMutex>::instance, __cxxabiv1::(anonymous namespace)::GlobalStatic<__cxxabiv1::(anonymous namespace)::LibcppCondVar>::instance, &__cxxabiv1::(anonymous namespace)::PlatformThreadID>::LockGuard", align 8
  store ptr %0, ptr %2, align 8, !tbaa !16
  %5 = load ptr, ptr %2, align 8
  call void @llvm.lifetime.start.p0(i64 1, ptr %3) #10
  call void @llvm.lifetime.start.p0(i64 8, ptr %4) #10
  call void @_ZN10__cxxabiv112_GLOBAL__N_119InitByteGlobalMutexINS0_11LibcppMutexENS0_13LibcppCondVarEL_ZNS0_12GlobalStaticIS2_E8instanceEEL_ZNS4_IS3_E8instanceEEXadL_ZNS0_16PlatformThreadIDEvEEE9LockGuardC2EPKc(ptr noundef nonnull align 8 dereferenceable(8) %4, ptr noundef @.str.6)
  %6 = getelementptr inbounds nuw %"struct.__cxxabiv1::(anonymous namespace)::InitByteGlobalMutex", ptr %5, i32 0, i32 2
  %7 = load i8, ptr %6, align 8, !tbaa !26, !range !34, !noundef !35
  %8 = trunc i8 %7 to i1
  br i1 %8, label %9, label %12

9:                                                ; preds = %1
  %10 = getelementptr inbounds nuw %"struct.__cxxabiv1::(anonymous namespace)::InitByteGlobalMutex", ptr %5, i32 0, i32 1
  %11 = load ptr, ptr %10, align 8, !tbaa !25
  store i32 0, ptr %11, align 4, !tbaa !37
  br label %12

12:                                               ; preds = %9, %1
  %13 = getelementptr inbounds nuw %"struct.__cxxabiv1::(anonymous namespace)::InitByteGlobalMutex", ptr %5, i32 0, i32 0
  %14 = load ptr, ptr %13, align 8, !tbaa !20
  %15 = load i8, ptr %14, align 1, !tbaa !36
  %16 = zext i8 %15 to i32
  %17 = and i32 %16, 4
  %18 = icmp ne i32 %17, 0
  %19 = zext i1 %18 to i8
  store i8 %19, ptr %3, align 1, !tbaa !50
  %20 = getelementptr inbounds nuw %"struct.__cxxabiv1::(anonymous namespace)::InitByteGlobalMutex", ptr %5, i32 0, i32 0
  %21 = load ptr, ptr %20, align 8, !tbaa !20
  store i8 0, ptr %21, align 1, !tbaa !36
  call void @_ZN10__cxxabiv112_GLOBAL__N_119InitByteGlobalMutexINS0_11LibcppMutexENS0_13LibcppCondVarEL_ZNS0_12GlobalStaticIS2_E8instanceEEL_ZNS4_IS3_E8instanceEEXadL_ZNS0_16PlatformThreadIDEvEEE9LockGuardD2Ev(ptr noundef nonnull align 8 dereferenceable(8) %4) #10
  call void @llvm.lifetime.end.p0(i64 8, ptr %4) #10
  %22 = load i8, ptr %3, align 1, !tbaa !50, !range !34, !noundef !35
  %23 = trunc i8 %22 to i1
  br i1 %23, label %24, label %28

24:                                               ; preds = %12
  %25 = call noundef zeroext i1 @_ZN10__cxxabiv112_GLOBAL__N_113LibcppCondVar9broadcastEv(ptr noundef nonnull align 8 dereferenceable(48) @_ZN10__cxxabiv112_GLOBAL__N_112GlobalStaticINS0_13LibcppCondVarEE8instanceE)
  br i1 %25, label %26, label %27

26:                                               ; preds = %24
  call void (ptr, ...) @__abort_message(ptr noundef @.str.5, ptr noundef @.str.6) #11
  unreachable

27:                                               ; preds = %24
  br label %28

28:                                               ; preds = %27, %12
  call void @llvm.lifetime.end.p0(i64 1, ptr %3) #10
  ret void
}

; Function Attrs: mustprogress nounwind uwtable
define internal void @_ZN10__cxxabiv112_GLOBAL__N_19GuardByte5abortEv(ptr noundef nonnull align 8 dereferenceable(8) %0) #3 align 2 {
  %2 = alloca ptr, align 8
  store ptr %0, ptr %2, align 8, !tbaa !12
  ret void
}

; Function Attrs: mustprogress uwtable
define internal void @_ZN10__cxxabiv112_GLOBAL__N_119InitByteGlobalMutexINS0_11LibcppMutexENS0_13LibcppCondVarEL_ZNS0_12GlobalStaticIS2_E8instanceEEL_ZNS4_IS3_E8instanceEEXadL_ZNS0_16PlatformThreadIDEvEEEC2EPhPj(ptr noundef nonnull align 8 dereferenceable(28) %0, ptr noundef %1, ptr noundef %2) unnamed_addr #2 align 2 {
  %4 = alloca ptr, align 8
  %5 = alloca ptr, align 8
  %6 = alloca ptr, align 8
  store ptr %0, ptr %4, align 8, !tbaa !16
  store ptr %1, ptr %5, align 8, !tbaa !14
  store ptr %2, ptr %6, align 8, !tbaa !18
  %7 = load ptr, ptr %4, align 8
  %8 = getelementptr inbounds nuw %"struct.__cxxabiv1::(anonymous namespace)::InitByteGlobalMutex", ptr %7, i32 0, i32 0
  %9 = load ptr, ptr %5, align 8, !tbaa !14
  store ptr %9, ptr %8, align 8, !tbaa !20
  %10 = getelementptr inbounds nuw %"struct.__cxxabiv1::(anonymous namespace)::InitByteGlobalMutex", ptr %7, i32 0, i32 1
  %11 = load ptr, ptr %6, align 8, !tbaa !18
  store ptr %11, ptr %10, align 8, !tbaa !25
  %12 = getelementptr inbounds nuw %"struct.__cxxabiv1::(anonymous namespace)::InitByteGlobalMutex", ptr %7, i32 0, i32 2
  %13 = load ptr, ptr %6, align 8, !tbaa !18
  %14 = icmp ne ptr %13, null
  br i1 %14, label %15, label %16

15:                                               ; preds = %3
  br label %16

16:                                               ; preds = %15, %3
  %17 = phi i1 [ false, %3 ], [ true, %15 ]
  %18 = zext i1 %17 to i8
  store i8 %18, ptr %12, align 8, !tbaa !26
  %19 = getelementptr inbounds nuw %"struct.__cxxabiv1::(anonymous namespace)::InitByteGlobalMutex", ptr %7, i32 0, i32 4
  call void @_ZN10__cxxabiv112_GLOBAL__N_19LazyValueIjXadL_ZNS0_16PlatformThreadIDEvEEEC2Ev(ptr noundef nonnull align 4 dereferenceable(5) %19)
  ret void
}

; Function Attrs: mustprogress uwtable
define internal void @_ZN10__cxxabiv112_GLOBAL__N_19GuardByteC2EPh(ptr noundef nonnull align 8 dereferenceable(8) %0, ptr noundef %1) unnamed_addr #2 align 2 {
  %3 = alloca ptr, align 8
  %4 = alloca ptr, align 8
  store ptr %0, ptr %3, align 8, !tbaa !12
  store ptr %1, ptr %4, align 8, !tbaa !14
  %5 = load ptr, ptr %3, align 8
  %6 = getelementptr inbounds nuw %"struct.__cxxabiv1::(anonymous namespace)::GuardByte", ptr %5, i32 0, i32 0
  %7 = load ptr, ptr %4, align 8, !tbaa !14
  call void @_ZN10__cxxabiv112_GLOBAL__N_19AtomicIntIhEC2EPh(ptr noundef nonnull align 8 dereferenceable(8) %6, ptr noundef %7)
  ret void
}

; Function Attrs: mustprogress uwtable
define internal void @_ZN10__cxxabiv112_GLOBAL__N_111GuardObjectINS0_19InitByteGlobalMutexINS0_11LibcppMutexENS0_13LibcppCondVarEL_ZNS0_12GlobalStaticIS3_E8instanceEEL_ZNS5_IS4_E8instanceEEXadL_ZNS0_16PlatformThreadIDEvEEEEE15cxa_guard_abortEv(ptr noundef nonnull align 8 dereferenceable(40) %0) #2 align 2 {
  %2 = alloca ptr, align 8
  store ptr %0, ptr %2, align 8, !tbaa !10
  %3 = load ptr, ptr %2, align 8
  %4 = getelementptr inbounds nuw %"struct.__cxxabiv1::(anonymous namespace)::GuardObject", ptr %3, i32 0, i32 0
  call void @_ZN10__cxxabiv112_GLOBAL__N_19GuardByte5abortEv(ptr noundef nonnull align 8 dereferenceable(8) %4)
  %5 = getelementptr inbounds nuw %"struct.__cxxabiv1::(anonymous namespace)::GuardObject", ptr %3, i32 0, i32 1
  call void @_ZN10__cxxabiv112_GLOBAL__N_119InitByteGlobalMutexINS0_11LibcppMutexENS0_13LibcppCondVarEL_ZNS0_12GlobalStaticIS2_E8instanceEEL_ZNS4_IS3_E8instanceEEXadL_ZNS0_16PlatformThreadIDEvEEE5abortEv(ptr noundef nonnull align 8 dereferenceable(28) %5)
  ret void
}

; Function Attrs: mustprogress uwtable
define internal void @_ZN10__cxxabiv112_GLOBAL__N_111GuardObjectINS0_19InitByteGlobalMutexINS0_11LibcppMutexENS0_13LibcppCondVarEL_ZNS0_12GlobalStaticIS3_E8instanceEEL_ZNS5_IS4_E8instanceEEXadL_ZNS0_16PlatformThreadIDEvEEEEEC2EPm(ptr noundef nonnull align 8 dereferenceable(40) %0, ptr noundef %1) unnamed_addr #2 align 2 {
  %3 = alloca ptr, align 8
  %4 = alloca ptr, align 8
  store ptr %0, ptr %3, align 8, !tbaa !10
  store ptr %1, ptr %4, align 8, !tbaa !5
  %5 = load ptr, ptr %3, align 8
  %6 = getelementptr inbounds nuw %"struct.__cxxabiv1::(anonymous namespace)::GuardObject", ptr %5, i32 0, i32 0
  %7 = load ptr, ptr %4, align 8, !tbaa !5
  call void @_ZN10__cxxabiv112_GLOBAL__N_19GuardByteC2EPh(ptr noundef nonnull align 8 dereferenceable(8) %6, ptr noundef %7)
  %8 = getelementptr inbounds nuw %"struct.__cxxabiv1::(anonymous namespace)::GuardObject", ptr %5, i32 0, i32 1
  %9 = load ptr, ptr %4, align 8, !tbaa !5
  %10 = getelementptr inbounds i8, ptr %9, i64 1
  %11 = load ptr, ptr %4, align 8, !tbaa !5
  %12 = getelementptr inbounds i32, ptr %11, i64 1
  call void @_ZN10__cxxabiv112_GLOBAL__N_119InitByteGlobalMutexINS0_11LibcppMutexENS0_13LibcppCondVarEL_ZNS0_12GlobalStaticIS2_E8instanceEEL_ZNS4_IS3_E8instanceEEXadL_ZNS0_16PlatformThreadIDEvEEEC2EPhPj(ptr noundef nonnull align 8 dereferenceable(28) %8, ptr noundef %10, ptr noundef %12)
  ret void
}

; Function Attrs: cold mustprogress optsize uwtable
define dso_local void @__cxa_guard_abort(ptr noundef %0) #0 {
  %2 = alloca ptr, align 8
  %3 = alloca %"struct.__cxxabiv1::(anonymous namespace)::GuardObject", align 8
  store ptr %0, ptr %2, align 8, !tbaa !5
  call void @llvm.lifetime.start.p0(i64 40, ptr %3) #10
  %4 = load ptr, ptr %2, align 8, !tbaa !5
  call void @_ZN10__cxxabiv112_GLOBAL__N_111GuardObjectINS0_19InitByteGlobalMutexINS0_11LibcppMutexENS0_13LibcppCondVarEL_ZNS0_12GlobalStaticIS3_E8instanceEEL_ZNS5_IS4_E8instanceEEXadL_ZNS0_16PlatformThreadIDEvEEEEEC2EPm(ptr noundef nonnull align 8 dereferenceable(40) %3, ptr noundef %4)
  call void @_ZN10__cxxabiv112_GLOBAL__N_111GuardObjectINS0_19InitByteGlobalMutexINS0_11LibcppMutexENS0_13LibcppCondVarEL_ZNS0_12GlobalStaticIS3_E8instanceEEL_ZNS5_IS4_E8instanceEEXadL_ZNS0_16PlatformThreadIDEvEEEEE15cxa_guard_abortEv(ptr noundef nonnull align 8 dereferenceable(40) %3)
  call void @llvm.lifetime.end.p0(i64 40, ptr %3) #10
  ret void
}