; Function Attrs: cold mustprogress optsize uwtable
define dso_local void @__cxa_guard_abort(ptr noundef captures(none) %0) local_unnamed_addr #0 personality ptr @__gxx_personality_v0 {
  %2 = tail call noundef i32 @pthread_mutex_lock(ptr noundef nonnull @_ZN10__cxxabiv112_GLOBAL__N_112GlobalStaticINS0_11LibcppMutexEE8instanceE) #7
  %.not.i.i.i = icmp eq i32 %2, 0
  br i1 %.not.i.i.i, label %4, label %3

3:                                                ; preds = %1
  tail call void (ptr, ...) @__abort_message(ptr noundef nonnull @.str.2, ptr noundef nonnull @.str.6) #8
  unreachable

4:                                                ; preds = %1
  %5 = getelementptr inbounds nuw i8, ptr %0, i64 4
  %6 = getelementptr inbounds nuw i8, ptr %0, i64 1
  store i32 0, ptr %5, align 4, !tbaa !8
  %7 = load i8, ptr %6, align 1, !tbaa !5
  store i8 0, ptr %6, align 1, !tbaa !5
  %8 = tail call noundef i32 @pthread_mutex_unlock(ptr noundef nonnull @_ZN10__cxxabiv112_GLOBAL__N_112GlobalStaticINS0_11LibcppMutexEE8instanceE) #7
  %.not.i1.i.i = icmp eq i32 %8, 0
  br i1 %.not.i1.i.i, label %_ZN10__cxxabiv112_GLOBAL__N_119InitByteGlobalMutexINS0_11LibcppMutexENS0_13LibcppCondVarEL_ZNS0_12GlobalStaticIS2_E8instanceEEL_ZNS4_IS3_E8instanceEEXadL_ZNS0_16PlatformThreadIDEvEEE9LockGuardD2Ev.exit.i.i, label %9

9:                                                ; preds = %4
  invoke void (ptr, ...) @__abort_message(ptr noundef nonnull @.str.3, ptr noundef nonnull @.str.6) #8
          to label %10 unwind label %11

10:                                               ; preds = %9
  unreachable

11:                                               ; preds = %9
  %12 = landingpad { ptr, i32 }
          catch ptr null
  %13 = extractvalue { ptr, i32 } %12, 0
  tail call void @__clang_call_terminate(ptr %13) #9
  unreachable

_ZN10__cxxabiv112_GLOBAL__N_119InitByteGlobalMutexINS0_11LibcppMutexENS0_13LibcppCondVarEL_ZNS0_12GlobalStaticIS2_E8instanceEEL_ZNS4_IS3_E8instanceEEXadL_ZNS0_16PlatformThreadIDEvEEE9LockGuardD2Ev.exit.i.i: ; preds = %4
  %14 = and i8 %7, 4
  %.not.i.i = icmp eq i8 %14, 0
  br i1 %.not.i.i, label %_ZN10__cxxabiv112_GLOBAL__N_111GuardObjectINS0_19InitByteGlobalMutexINS0_11LibcppMutexENS0_13LibcppCondVarEL_ZNS0_12GlobalStaticIS3_E8instanceEEL_ZNS5_IS4_E8instanceEEXadL_ZNS0_16PlatformThreadIDEvEEEEE15cxa_guard_abortEv.exit, label %15

15:                                               ; preds = %_ZN10__cxxabiv112_GLOBAL__N_119InitByteGlobalMutexINS0_11LibcppMutexENS0_13LibcppCondVarEL_ZNS0_12GlobalStaticIS2_E8instanceEEL_ZNS4_IS3_E8instanceEEXadL_ZNS0_16PlatformThreadIDEvEEE9LockGuardD2Ev.exit.i.i
  %16 = tail call noundef i32 @pthread_cond_broadcast(ptr noundef nonnull @_ZN10__cxxabiv112_GLOBAL__N_112GlobalStaticINS0_13LibcppCondVarEE8instanceE) #7
  %.not2.i.i = icmp eq i32 %16, 0
  br i1 %.not2.i.i, label %_ZN10__cxxabiv112_GLOBAL__N_111GuardObjectINS0_19InitByteGlobalMutexINS0_11LibcppMutexENS0_13LibcppCondVarEL_ZNS0_12GlobalStaticIS3_E8instanceEEL_ZNS5_IS4_E8instanceEEXadL_ZNS0_16PlatformThreadIDEvEEEEE15cxa_guard_abortEv.exit, label %17

17:                                               ; preds = %15
  tail call void (ptr, ...) @__abort_message(ptr noundef nonnull @.str.5, ptr noundef nonnull @.str.6) #8
  unreachable

_ZN10__cxxabiv112_GLOBAL__N_111GuardObjectINS0_19InitByteGlobalMutexINS0_11LibcppMutexENS0_13LibcppCondVarEL_ZNS0_12GlobalStaticIS3_E8instanceEEL_ZNS5_IS4_E8instanceEEXadL_ZNS0_16PlatformThreadIDEvEEEEE15cxa_guard_abortEv.exit: ; preds = %_ZN10__cxxabiv112_GLOBAL__N_119InitByteGlobalMutexINS0_11LibcppMutexENS0_13LibcppCondVarEL_ZNS0_12GlobalStaticIS2_E8instanceEEL_ZNS4_IS3_E8instanceEEXadL_ZNS0_16PlatformThreadIDEvEEE9LockGuardD2Ev.exit.i.i, %15
  ret void
}